; Function Attrs: mustprogress uwtable
define internal void @_ZN17grpc_event_engine12experimental12_GLOBAL__N_115EndpointDestroyEP13grpc_endpoint(ptr noundef readonly captures(none) %0) #3 personality ptr @__gxx_personality_v0 {
  %2 = alloca %"class.absl::lts_20240722::log_internal::LogMessage", align 8
  %3 = alloca %"class.absl::lts_20240722::AnyInvocable", align 16
  %4 = load atomic i8, ptr getelementptr inbounds nuw (i8, ptr @_ZN9grpc_core18event_engine_traceE, i64 16) monotonic, align 8
  %5 = trunc i8 %4 to i1
  br i1 %5, label %6, label %.critedge13, !prof !62

6:                                                ; preds = %1
  call void @llvm.lifetime.start.p0(i64 16, ptr nonnull %2) #28
  call void @_ZN4absl12lts_2024072212log_internal10LogMessageC1EPKciNS2_7InfoTagE(ptr noundef nonnull align 8 dereferenceable(16) %2, ptr noundef nonnull @.str.1, i32 noundef 348) #30
  invoke void @_ZN4absl12lts_2024072212log_internal10LogMessage19CopyToEncodedBufferILNS2_10StringTypeE0EEEvSt17basic_string_viewIcSt11char_traitsIcEE(ptr noundef nonnull align 8 dereferenceable(16) %2, i64 23, ptr nonnull @.str.14)
          to label %_ZN4absl12lts_2024072212log_internal10LogMessagelsILi24EEERS2_RAT__Kc.exit unwind label %17

_ZN4absl12lts_2024072212log_internal10LogMessagelsILi24EEERS2_RAT__Kc.exit: ; preds = %6
  %7 = getelementptr inbounds nuw i8, ptr %0, i64 8
  %8 = invoke fastcc noundef nonnull align 8 dereferenceable(16) ptr @_ZN4absl12lts_2024072212log_internal10LogMessagelsIPN17grpc_event_engine12experimental12_GLOBAL__N_126EventEngineEndpointWrapperETnNSt9enable_ifIXntsr4absl16HasAbslStringifyIT_EE5valueEiE4typeELi0EEERS2_RKSA_(ptr noundef nonnull align 8 dereferenceable(16) %2, ptr noundef nonnull align 8 dereferenceable(8) %7)
          to label %9 unwind label %17

9:                                                ; preds = %_ZN4absl12lts_2024072212log_internal10LogMessagelsILi24EEERS2_RAT__Kc.exit
  invoke void @_ZN4absl12lts_2024072212log_internal10LogMessage19CopyToEncodedBufferILNS2_10StringTypeE0EEEvSt17basic_string_viewIcSt11char_traitsIcEE(ptr noundef nonnull align 8 dereferenceable(16) %2, i64 16, ptr nonnull @.str.15)
          to label %.critedge unwind label %17

.critedge:                                        ; preds = %9
  call void @_ZN4absl12lts_2024072212log_internal10LogMessageD1Ev(ptr noundef nonnull align 8 dereferenceable(16) %2) #31
  call void @llvm.lifetime.end.p0(i64 16, ptr nonnull %2) #28
  br label %.critedge13

.critedge13:                                      ; preds = %1, %.critedge
  %10 = getelementptr inbounds nuw i8, ptr %0, i64 8
  %11 = load ptr, ptr %10, align 8, !tbaa !61
  %12 = getelementptr inbounds nuw i8, ptr %3, i64 16
  store ptr @_ZN4absl12lts_2024072222internal_any_invocable12EmptyManagerENS1_14FunctionToCallEPNS1_15TypeErasedStateES4_, ptr %12, align 16, !tbaa !16
  %13 = getelementptr inbounds nuw i8, ptr %3, i64 24
  store ptr null, ptr %13, align 8, !tbaa !68
  invoke fastcc void @_ZN17grpc_event_engine12experimental12_GLOBAL__N_126EventEngineEndpointWrapper15TriggerShutdownEN4absl12lts_2024072212AnyInvocableIFvNS4_8StatusOrIiEEEEE(ptr noundef nonnull align 16 dereferenceable(164) %11, ptr noundef %3)
          to label %14 unwind label %19

14:                                               ; preds = %.critedge13
  %15 = load ptr, ptr %12, align 16, !tbaa !16
  call void %15(i1 noundef zeroext true, ptr noundef nonnull align 16 dereferenceable(32) %3, ptr noundef nonnull align 16 dereferenceable(32) %3) #28
  %16 = load ptr, ptr %10, align 8, !tbaa !61
  call fastcc void @_ZN17grpc_event_engine12experimental12_GLOBAL__N_126EventEngineEndpointWrapper5UnrefEv(ptr noundef nonnull align 16 dereferenceable(164) %16)
  ret void

17:                                               ; preds = %9, %6, %_ZN4absl12lts_2024072212log_internal10LogMessagelsILi24EEERS2_RAT__Kc.exit
  %18 = landingpad { ptr, i32 }
          cleanup
  call void @_ZN4absl12lts_2024072212log_internal10LogMessageD1Ev(ptr noundef nonnull align 8 dereferenceable(16) %2) #31
  call void @llvm.lifetime.end.p0(i64 16, ptr nonnull %2) #28
  br label %22

19:                                               ; preds = %.critedge13
  %20 = landingpad { ptr, i32 }
          cleanup
  %21 = load ptr, ptr %12, align 16, !tbaa !16
  call void %21(i1 noundef zeroext true, ptr noundef nonnull align 16 dereferenceable(32) %3, ptr noundef nonnull align 16 dereferenceable(32) %3) #28
  br label %22

22:                                               ; preds = %19, %17
  %.pn = phi { ptr, i32 } [ %20, %19 ], [ %18, %17 ]
  resume { ptr, i32 } %.pn
}